target datalayout = "e-m:e-p270:32:32-p271:32:32-p272:64:64-i64:64-i128:128-f80:128-n8:16:32:64-S128"
target triple = "x86_64-unknown-linux-gnu"

%"class.zmq::mechanism_t" = type { ptr, %"struct.zmq::options_t", %"class.std::map", %"class.std::map", %"struct.zmq::blob_t", %"struct.zmq::blob_t" }
%"struct.zmq::options_t" = type { i32, i32, i64, i8, [256 x i8], i32, i32, i32, i32, i32, i32, i32, i32, i8, %"struct.zmq::atomic_value_t", i32, i32, i32, i32, i32, i32, i64, i32, i32, i8, i32, i8, i8, i8, i8, i8, %"class.std::__cxx11::basic_string", %"class.std::__cxx11::basic_string", %"class.std::__cxx11::basic_string", i32, i32, i32, i32, %"class.std::vector", %"class.std::set", %"class.std::set", %"class.std::set.6", i32, i32, %"class.std::__cxx11::basic_string", %"class.std::__cxx11::basic_string", %"class.std::__cxx11::basic_string", [32 x i8], [32 x i8], [32 x i8], %"class.std::__cxx11::basic_string", %"class.std::__cxx11::basic_string", i32, i32, i8, i32, i8, i32, i8, i16, i32, i32, i32, %"class.std::__cxx11::basic_string", i8, i8, i8, i32, i32, i8, i32, %"class.std::map", i32, %"class.std::__cxx11::basic_string", %"class.std::__cxx11::basic_string", %"class.std::__cxx11::basic_string", %"class.std::__cxx11::basic_string", i8, %"class.std::vector.21", i8, %"class.std::vector.21", i8, %"class.std::vector.21", i8, i32, i8, i32, i32, i32, i32, i32, i8, i32 }
%"struct.zmq::atomic_value_t" = type { %"struct.std::atomic" }
%"struct.std::atomic" = type { %"struct.std::__atomic_base" }
%"struct.std::__atomic_base" = type { i32 }
%"class.std::vector" = type { %"struct.std::_Vector_base" }
%"struct.std::_Vector_base" = type { %"struct.std::_Vector_base<zmq::tcp_address_mask_t, std::allocator<zmq::tcp_address_mask_t>>::_Vector_impl" }
%"struct.std::_Vector_base<zmq::tcp_address_mask_t, std::allocator<zmq::tcp_address_mask_t>>::_Vector_impl" = type { %"struct.std::_Vector_base<zmq::tcp_address_mask_t, std::allocator<zmq::tcp_address_mask_t>>::_Vector_impl_data" }
%"struct.std::_Vector_base<zmq::tcp_address_mask_t, std::allocator<zmq::tcp_address_mask_t>>::_Vector_impl_data" = type { ptr, ptr, ptr }
%"class.std::set" = type { %"class.std::_Rb_tree" }
%"class.std::_Rb_tree" = type { %"struct.std::_Rb_tree<unsigned int, unsigned int, std::_Identity<unsigned int>, std::less<unsigned int>>::_Rb_tree_impl" }
%"struct.std::_Rb_tree<unsigned int, unsigned int, std::_Identity<unsigned int>, std::less<unsigned int>>::_Rb_tree_impl" = type { %"struct.std::_Rb_tree_key_compare", %"struct.std::_Rb_tree_header" }
%"struct.std::_Rb_tree_key_compare" = type { %"struct.std::less" }
%"struct.std::less" = type { i8 }
%"struct.std::_Rb_tree_header" = type { %"struct.std::_Rb_tree_node_base", i64 }
%"struct.std::_Rb_tree_node_base" = type { i32, ptr, ptr, ptr }
%"class.std::set.6" = type { %"class.std::_Rb_tree.7" }
%"class.std::_Rb_tree.7" = type { %"struct.std::_Rb_tree<int, int, std::_Identity<int>, std::less<int>>::_Rb_tree_impl" }
%"struct.std::_Rb_tree<int, int, std::_Identity<int>, std::less<int>>::_Rb_tree_impl" = type { %"struct.std::_Rb_tree_key_compare.11", %"struct.std::_Rb_tree_header" }
%"struct.std::_Rb_tree_key_compare.11" = type { %"struct.std::less.12" }
%"struct.std::less.12" = type { i8 }
%"class.std::__cxx11::basic_string" = type { %"struct.std::__cxx11::basic_string<char>::_Alloc_hider", i64, %union.anon }
%"struct.std::__cxx11::basic_string<char>::_Alloc_hider" = type { ptr }
%union.anon = type { i64, [8 x i8] }
%"class.std::vector.21" = type { %"struct.std::_Vector_base.22" }
%"struct.std::_Vector_base.22" = type { %"struct.std::_Vector_base<unsigned char, std::allocator<unsigned char>>::_Vector_impl" }
%"struct.std::_Vector_base<unsigned char, std::allocator<unsigned char>>::_Vector_impl" = type { %"struct.std::_Vector_base<unsigned char, std::allocator<unsigned char>>::_Vector_impl_data" }
%"struct.std::_Vector_base<unsigned char, std::allocator<unsigned char>>::_Vector_impl_data" = type { ptr, ptr, ptr }
%"class.std::map" = type { %"class.std::_Rb_tree.14" }
%"class.std::_Rb_tree.14" = type { %"struct.std::_Rb_tree<std::__cxx11::basic_string<char>, std::pair<const std::__cxx11::basic_string<char>, std::__cxx11::basic_string<char>>, std::_Select1st<std::pair<const std::__cxx11::basic_string<char>, std::__cxx11::basic_string<char>>>, std::less<std::__cxx11::basic_string<char>>>::_Rb_tree_impl" }
%"struct.std::_Rb_tree<std::__cxx11::basic_string<char>, std::pair<const std::__cxx11::basic_string<char>, std::__cxx11::basic_string<char>>, std::_Select1st<std::pair<const std::__cxx11::basic_string<char>, std::__cxx11::basic_string<char>>>, std::less<std::__cxx11::basic_string<char>>>::_Rb_tree_impl" = type { %"struct.std::_Rb_tree_key_compare.18", %"struct.std::_Rb_tree_header" }
%"struct.std::_Rb_tree_key_compare.18" = type { %"struct.std::less.19" }
%"struct.std::less.19" = type { i8 }
%"struct.zmq::blob_t" = type <{ ptr, i64, i8, [7 x i8] }>
%"class.zmq::mechanism_base_t" = type { %"class.zmq::mechanism_t", ptr }
%"class.zmq::zap_client_t" = type { ptr, %"class.std::__cxx11::basic_string", %"class.std::__cxx11::basic_string", %"class.zmq::mechanism_base_t" }

@stderr = external global ptr, align 8
@.str = private unnamed_addr constant [30 x i8] c"Assertion failed: %s (%s:%d)\0A\00", align 1
@.str.2 = private unnamed_addr constant [112 x i8] c"generated/home/dtcxzyw/WorkSpace/Projects/compilers/llvm-opt-benchmark/bench/libzmq/libzmq/src/plain_server.cpp\00", align 1
@.str.4 = private unnamed_addr constant [72 x i8] c"status_code.length () == static_cast<size_t> (expected_status_code_len)\00", align 1
@.str.5 = private unnamed_addr constant [8 x i8] c"rc == 0\00", align 1
@_ZN3zmqL12error_prefixE = internal constant [6 x i8] c"^RROR\00", align 1

; Function Attrs: mustprogress uwtable
define void @_ZNK3zmq14plain_server_t13produce_errorEPNS_5msg_tE(ptr noundef nonnull align 8 dereferenceable(1576) %this, ptr noundef %msg_) #0 align 2 {
entry:
  %this.addr = alloca ptr, align 8
  %msg_.addr = alloca ptr, align 8
  %expected_status_code_len = alloca i8, align 1
  %status_code_len_size = alloca i64, align 8
  %rc = alloca i32, align 4
  %msg_data = alloca ptr, align 8
  store ptr %this, ptr %this.addr, align 8
  store ptr %msg_, ptr %msg_.addr, align 8
  %this1 = load ptr, ptr %this.addr, align 8
  store i8 3, ptr %expected_status_code_len, align 1
  br label %do.body

do.body:                                          ; preds = %entry
  %status_code = getelementptr inbounds %"class.zmq::zap_client_t", ptr %this1, i32 0, i32 2
  %call = call noundef i64 @_ZNKSt7__cxx1112basic_stringIcSt11char_traitsIcESaIcEE6lengthEv(ptr noundef nonnull align 8 dereferenceable(32) %status_code) #11
  %cmp = icmp eq i64 %call, 3
  %lnot = xor i1 %cmp, true
  br i1 %lnot, label %if.then, label %if.end

if.then:                                          ; preds = %do.body
  %0 = load ptr, ptr @stderr, align 8
  %call2 = call i32 (ptr, ptr, ...) @fprintf(ptr noundef %0, ptr noundef @.str, ptr noundef @.str.4, ptr noundef @.str.2, i32 noundef 203)
  %1 = load ptr, ptr @stderr, align 8
  %call3 = call i32 @fflush(ptr noundef %1)
  call void @_ZN3zmq9zmq_abortEPKc(ptr noundef @.str.4)
  br label %if.end

if.end:                                           ; preds = %if.then, %do.body
  br label %do.end

do.end:                                           ; preds = %if.end
  store i64 1, ptr %status_code_len_size, align 8
  %2 = load ptr, ptr %msg_.addr, align 8
  %call4 = call noundef i32 @_ZN3zmq5msg_t9init_sizeEm(ptr noundef nonnull align 8 dereferenceable(64) %2, i64 noundef 9)
  store i32 %call4, ptr %rc, align 4
  br label %do.body5

do.body5:                                         ; preds = %do.end
  %3 = load i32, ptr %rc, align 4
  %cmp6 = icmp eq i32 %3, 0
  %lnot7 = xor i1 %cmp6, true
  br i1 %lnot7, label %if.then8, label %if.end11

if.then8:                                         ; preds = %do.body5
  %4 = load ptr, ptr @stderr, align 8
  %call9 = call i32 (ptr, ptr, ...) @fprintf(ptr noundef %4, ptr noundef @.str, ptr noundef @.str.5, ptr noundef @.str.2, i32 noundef 207)
  %5 = load ptr, ptr @stderr, align 8
  %call10 = call i32 @fflush(ptr noundef %5)
  call void @_ZN3zmq9zmq_abortEPKc(ptr noundef @.str.5)
  br label %if.end11

if.end11:                                         ; preds = %if.then8, %do.body5
  br label %do.end12

do.end12:                                         ; preds = %if.end11
  %6 = load ptr, ptr %msg_.addr, align 8
  %call13 = call noundef ptr @_ZN3zmq5msg_t4dataEv(ptr noundef nonnull align 8 dereferenceable(64) %6)
  store ptr %call13, ptr %msg_data, align 8
  %7 = load ptr, ptr %msg_data, align 8
  call void @llvm.memcpy.p0.p0.i64(ptr align 1 %7, ptr align 1 @_ZN3zmqL12error_prefixE, i64 5, i1 false)
  %8 = load ptr, ptr %msg_data, align 8
  %arrayidx = getelementptr inbounds i8, ptr %8, i64 5
  store i8 3, ptr %arrayidx, align 1
  %9 = load ptr, ptr %msg_data, align 8
  %add.ptr = getelementptr inbounds i8, ptr %9, i64 5
  %add.ptr14 = getelementptr inbounds i8, ptr %add.ptr, i64 1
  %status_code15 = getelementptr inbounds %"class.zmq::zap_client_t", ptr %this1, i32 0, i32 2
  %call16 = call noundef ptr @_ZNKSt7__cxx1112basic_stringIcSt11char_traitsIcESaIcEE5c_strEv(ptr noundef nonnull align 8 dereferenceable(32) %status_code15) #11
  %status_code17 = getelementptr inbounds %"class.zmq::zap_client_t", ptr %this1, i32 0, i32 2
  %call18 = call noundef i64 @_ZNKSt7__cxx1112basic_stringIcSt11char_traitsIcESaIcEE6lengthEv(ptr noundef nonnull align 8 dereferenceable(32) %status_code17) #11
  call void @llvm.memcpy.p0.p0.i64(ptr align 1 %add.ptr14, ptr align 1 %call16, i64 %call18, i1 false)
  ret void
}