; Function Attrs: mustprogress uwtable
define void @_ZNK3zmq14plain_server_t13produce_errorEPNS_5msg_tE(ptr noundef nonnull align 8 dereferenceable(1576) %this, ptr noundef %msg_) local_unnamed_addr #0 align 2 {
entry:
  %status_code = getelementptr inbounds i8, ptr %this, i64 40
  %call = tail call noundef i64 @_ZNKSt7__cxx1112basic_stringIcSt11char_traitsIcESaIcEE6lengthEv(ptr noundef nonnull align 8 dereferenceable(32) %status_code) #13
  %cmp.not = icmp eq i64 %call, 3
  br i1 %cmp.not, label %do.end, label %if.then

if.then:                                          ; preds = %entry
  %0 = load ptr, ptr @stderr, align 8
  %call2 = tail call i32 (ptr, ptr, ...) @fprintf(ptr noundef %0, ptr noundef nonnull @.str, ptr noundef nonnull @.str.4, ptr noundef nonnull @.str.2, i32 noundef 203) #12
  %1 = load ptr, ptr @stderr, align 8
  %call3 = tail call i32 @fflush(ptr noundef %1)
  tail call void @_ZN3zmq9zmq_abortEPKc(ptr noundef nonnull @.str.4)
  br label %do.end

do.end:                                           ; preds = %entry, %if.then
  %call4 = tail call noundef i32 @_ZN3zmq5msg_t9init_sizeEm(ptr noundef nonnull align 8 dereferenceable(64) %msg_, i64 noundef 9)
  %cmp6.not = icmp eq i32 %call4, 0
  br i1 %cmp6.not, label %do.end12, label %if.then8

if.then8:                                         ; preds = %do.end
  %2 = load ptr, ptr @stderr, align 8
  %call9 = tail call i32 (ptr, ptr, ...) @fprintf(ptr noundef %2, ptr noundef nonnull @.str, ptr noundef nonnull @.str.5, ptr noundef nonnull @.str.2, i32 noundef 207) #12
  %3 = load ptr, ptr @stderr, align 8
  %call10 = tail call i32 @fflush(ptr noundef %3)
  tail call void @_ZN3zmq9zmq_abortEPKc(ptr noundef nonnull @.str.5)
  br label %do.end12

do.end12:                                         ; preds = %do.end, %if.then8
  %call13 = tail call noundef ptr @_ZN3zmq5msg_t4dataEv(ptr noundef nonnull align 8 dereferenceable(64) %msg_)
  tail call void @llvm.memcpy.p0.p0.i64(ptr noundef nonnull align 1 dereferenceable(5) %call13, ptr noundef nonnull align 1 dereferenceable(5) @_ZN3zmqL12error_prefixE, i64 5, i1 false)
  %arrayidx = getelementptr inbounds i8, ptr %call13, i64 5
  store i8 3, ptr %arrayidx, align 1
  %add.ptr14 = getelementptr inbounds i8, ptr %call13, i64 6
  %call16 = tail call noundef ptr @_ZNKSt7__cxx1112basic_stringIcSt11char_traitsIcESaIcEE5c_strEv(ptr noundef nonnull align 8 dereferenceable(32) %status_code) #13
  %call18 = tail call noundef i64 @_ZNKSt7__cxx1112basic_stringIcSt11char_traitsIcESaIcEE6lengthEv(ptr noundef nonnull align 8 dereferenceable(32) %status_code) #13
  tail call void @llvm.memcpy.p0.p0.i64(ptr nonnull align 1 %add.ptr14, ptr align 1 %call16, i64 %call18, i1 false)
  ret void
}